target datalayout = "e-m:e-p270:32:32-p271:32:32-p272:64:64-i64:64-i128:128-f80:128-n8:16:32:64-S128"
target triple = "x86_64-pc-linux-gnu"

%struct.mbedtls_asn1_buf = type { i32, i64, ptr }
%struct.mbedtls_asn1_named_data = type { %struct.mbedtls_asn1_buf, %struct.mbedtls_asn1_buf, ptr, i8 }
%struct.mbedtls_x509_subject_alternative_name = type { i32, %union.anon }
%union.anon = type { %struct.mbedtls_x509_san_other_name }
%struct.mbedtls_x509_san_other_name = type { %struct.mbedtls_asn1_buf, %union.anon.0 }
%union.anon.0 = type { %struct.anon }
%struct.anon = type { %struct.mbedtls_asn1_buf, %struct.mbedtls_asn1_buf }

; Function Attrs: nounwind uwtable
define hidden void @mbedtls_x509_free_subject_alt_name(ptr noundef %0) #0 {
  %2 = alloca ptr, align 8
  store ptr %0, ptr %2, align 8, !tbaa !69
  %3 = load ptr, ptr %2, align 8, !tbaa !69
  %4 = getelementptr inbounds nuw %struct.mbedtls_x509_subject_alternative_name, ptr %3, i32 0, i32 0
  %5 = load i32, ptr %4, align 8, !tbaa !71
  %6 = icmp eq i32 %5, 4
  br i1 %6, label %7, label %12

7:                                                ; preds = %1
  %8 = load ptr, ptr %2, align 8, !tbaa !69
  %9 = getelementptr inbounds nuw %struct.mbedtls_x509_subject_alternative_name, ptr %8, i32 0, i32 1
  %10 = getelementptr inbounds nuw %struct.mbedtls_asn1_named_data, ptr %9, i32 0, i32 2
  %11 = load ptr, ptr %10, align 8, !tbaa !15
  call void @mbedtls_asn1_free_named_data_list_shallow(ptr noundef %11)
  br label %12

12:                                               ; preds = %7, %1
  ret void
}