; Function Attrs: nounwind uwtable
define hidden void @mbedtls_x509_free_subject_alt_name(ptr noundef readonly captures(none) %0) local_unnamed_addr #0 {
  %2 = load i32, ptr %0, align 8, !tbaa !52
  %3 = icmp eq i32 %2, 4
  br i1 %3, label %4, label %7

4:                                                ; preds = %1
  %5 = getelementptr inbounds nuw i8, ptr %0, i64 56
  %6 = load ptr, ptr %5, align 8, !tbaa !8
  tail call void @mbedtls_asn1_free_named_data_list_shallow(ptr noundef %6) #13
  br label %7

7:                                                ; preds = %4, %1
  ret void
}